target datalayout = "e-m:e-p270:32:32-p271:32:32-p272:64:64-i64:64-i128:128-f80:128-n8:16:32:64-S128"
target triple = "x86_64-pc-linux-gnu"

%"class.std::__cxx11::basic_string" = type { %"struct.std::__cxx11::basic_string<char>::_Alloc_hider", i64, %union.anon }
%"struct.std::__cxx11::basic_string<char>::_Alloc_hider" = type { ptr }
%union.anon = type { i64, [8 x i8] }

@.str.20 = private unnamed_addr constant [144 x i8] c"generated/home/dtcxzyw/WorkSpace/Projects/compilers/llvm-opt-benchmark/bench/openspiel/open_spiel/open_spiel/games/crazy_eights/crazy_eights.cc\00", align 1
@.str.21 = private unnamed_addr constant [2 x i8] c":\00", align 1
@.str.22 = private unnamed_addr constant [2 x i8] c" \00", align 1
@.str.25 = private unnamed_addr constant [4 x i8] c" = \00", align 1
@.str.35 = private unnamed_addr constant [7 x i8] c", 0 = \00", align 1
@.str.37 = private unnamed_addr constant [15 x i8] c", kNumCards = \00", align 1
@.str.70 = private unnamed_addr constant [12 x i8] c"action >= 0\00", align 1
@.str.71 = private unnamed_addr constant [8 x i8] c"\0Aaction\00", align 1
@.str.96 = private unnamed_addr constant [19 x i8] c"action < kNumCards\00", align 1

; Function Attrs: mustprogress uwtable
define internal noundef i32 @_ZN10open_spiel12crazy_eights12_GLOBAL__N_17GetRankEi(i32 noundef %0) #4 personality ptr @__gxx_personality_v0 {
  %2 = alloca i32, align 4
  %3 = alloca i32, align 4
  %4 = alloca i32, align 4
  %5 = alloca %"class.std::__cxx11::basic_string", align 8
  %6 = alloca i32, align 4
  %7 = alloca ptr, align 8
  %8 = alloca i32, align 4
  %9 = alloca i32, align 4
  %10 = alloca i32, align 4
  %11 = alloca %"class.std::__cxx11::basic_string", align 8
  %12 = alloca i32, align 4
  store i32 %0, ptr %2, align 4
  br label %13

13:                                               ; preds = %1
  %14 = load i32, ptr %2, align 4
  store i32 %14, ptr %3, align 4
  store i32 0, ptr %4, align 4
  %15 = load i32, ptr %3, align 4
  %16 = load i32, ptr %4, align 4
  %17 = icmp sge i32 %15, %16
  br i1 %17, label %24, label %18

18:                                               ; preds = %13
  store i32 77, ptr %6, align 4
  call void @_ZN10open_spiel8internal11SpielStrCatIJRA144_KcRA2_S2_iS6_RA12_S2_RA8_S2_RA4_S2_RiRA7_S2_SD_EEENSt7__cxx1112basic_stringIcSt11char_traitsIcESaIcEEEDpOT_(ptr dead_on_unwind writable sret(%"class.std::__cxx11::basic_string") align 8 %5, ptr noundef nonnull align 1 dereferenceable(144) @.str.20, ptr noundef nonnull align 1 dereferenceable(2) @.str.21, ptr noundef nonnull align 4 dereferenceable(4) %6, ptr noundef nonnull align 1 dereferenceable(2) @.str.22, ptr noundef nonnull align 1 dereferenceable(12) @.str.70, ptr noundef nonnull align 1 dereferenceable(8) @.str.71, ptr noundef nonnull align 1 dereferenceable(4) @.str.25, ptr noundef nonnull align 4 dereferenceable(4) %3, ptr noundef nonnull align 1 dereferenceable(7) @.str.35, ptr noundef nonnull align 4 dereferenceable(4) %4)
  invoke void @_ZN10open_spiel15SpielFatalErrorERKNSt7__cxx1112basic_stringIcSt11char_traitsIcESaIcEEE(ptr noundef nonnull align 8 dereferenceable(32) %5) #16
          to label %19 unwind label %20

19:                                               ; preds = %18
  unreachable

20:                                               ; preds = %18
  %21 = landingpad { ptr, i32 }
          cleanup
  %22 = extractvalue { ptr, i32 } %21, 0
  store ptr %22, ptr %7, align 8
  %23 = extractvalue { ptr, i32 } %21, 1
  store i32 %23, ptr %8, align 4
  call void @_ZNSt7__cxx1112basic_stringIcSt11char_traitsIcESaIcEED1Ev(ptr noundef nonnull align 8 dereferenceable(32) %5) #3
  br label %41

24:                                               ; preds = %13
  br label %25

25:                                               ; preds = %24
  br label %26

26:                                               ; preds = %25
  %27 = load i32, ptr %2, align 4
  store i32 %27, ptr %9, align 4
  store i32 52, ptr %10, align 4
  %28 = load i32, ptr %9, align 4
  %29 = load i32, ptr %10, align 4
  %30 = icmp slt i32 %28, %29
  br i1 %30, label %37, label %31

31:                                               ; preds = %26
  store i32 78, ptr %12, align 4
  call void @_ZN10open_spiel8internal11SpielStrCatIJRA144_KcRA2_S2_iS6_RA19_S2_RA8_S2_RA4_S2_RiRA15_S2_SD_EEENSt7__cxx1112basic_stringIcSt11char_traitsIcESaIcEEEDpOT_(ptr dead_on_unwind writable sret(%"class.std::__cxx11::basic_string") align 8 %11, ptr noundef nonnull align 1 dereferenceable(144) @.str.20, ptr noundef nonnull align 1 dereferenceable(2) @.str.21, ptr noundef nonnull align 4 dereferenceable(4) %12, ptr noundef nonnull align 1 dereferenceable(2) @.str.22, ptr noundef nonnull align 1 dereferenceable(19) @.str.96, ptr noundef nonnull align 1 dereferenceable(8) @.str.71, ptr noundef nonnull align 1 dereferenceable(4) @.str.25, ptr noundef nonnull align 4 dereferenceable(4) %9, ptr noundef nonnull align 1 dereferenceable(15) @.str.37, ptr noundef nonnull align 4 dereferenceable(4) %10)
  invoke void @_ZN10open_spiel15SpielFatalErrorERKNSt7__cxx1112basic_stringIcSt11char_traitsIcESaIcEEE(ptr noundef nonnull align 8 dereferenceable(32) %11) #16
          to label %32 unwind label %33

32:                                               ; preds = %31
  unreachable

33:                                               ; preds = %31
  %34 = landingpad { ptr, i32 }
          cleanup
  %35 = extractvalue { ptr, i32 } %34, 0
  store ptr %35, ptr %7, align 8
  %36 = extractvalue { ptr, i32 } %34, 1
  store i32 %36, ptr %8, align 4
  call void @_ZNSt7__cxx1112basic_stringIcSt11char_traitsIcESaIcEED1Ev(ptr noundef nonnull align 8 dereferenceable(32) %11) #3
  br label %41

37:                                               ; preds = %26
  br label %38

38:                                               ; preds = %37
  %39 = load i32, ptr %2, align 4
  %40 = sdiv i32 %39, 4
  ret i32 %40

41:                                               ; preds = %33, %20
  %42 = load ptr, ptr %7, align 8
  %43 = load i32, ptr %8, align 4
  %44 = insertvalue { ptr, i32 } poison, ptr %42, 0
  %45 = insertvalue { ptr, i32 } %44, i32 %43, 1
  resume { ptr, i32 } %45
}