; Function Attrs: mustprogress uwtable
define internal fastcc noundef range(i32 0, 536870912) i32 @_ZN10open_spiel12crazy_eights12_GLOBAL__N_17GetRankEi(i32 noundef %0) unnamed_addr #3 personality ptr @__gxx_personality_v0 {
  %2 = alloca i32, align 4
  %3 = alloca i32, align 4
  %4 = alloca %"class.std::__cxx11::basic_string", align 8
  %5 = alloca i32, align 4
  %6 = alloca i32, align 4
  %7 = alloca i32, align 4
  %8 = alloca %"class.std::__cxx11::basic_string", align 8
  %9 = alloca i32, align 4
  store i32 %0, ptr %2, align 4
  store i32 0, ptr %3, align 4
  %10 = icmp sgt i32 %0, -1
  br i1 %10, label %15, label %11

11:                                               ; preds = %1
  store i32 77, ptr %5, align 4
  call void @_ZN10open_spiel8internal11SpielStrCatIJRA144_KcRA2_S2_iS6_RA12_S2_RA8_S2_RA4_S2_RiRA7_S2_SD_EEENSt7__cxx1112basic_stringIcSt11char_traitsIcESaIcEEEDpOT_(ptr dead_on_unwind nonnull writable sret(%"class.std::__cxx11::basic_string") align 8 %4, ptr noundef nonnull align 1 dereferenceable(144) @.str.20, ptr noundef nonnull align 1 dereferenceable(2) @.str.21, ptr noundef nonnull align 4 dereferenceable(4) %5, ptr noundef nonnull align 1 dereferenceable(2) @.str.22, ptr noundef nonnull align 1 dereferenceable(12) @.str.70, ptr noundef nonnull align 1 dereferenceable(8) @.str.71, ptr noundef nonnull align 1 dereferenceable(4) @.str.25, ptr noundef nonnull align 4 dereferenceable(4) %2, ptr noundef nonnull align 1 dereferenceable(7) @.str.35, ptr noundef nonnull align 4 dereferenceable(4) %3)
  invoke void @_ZN10open_spiel15SpielFatalErrorERKNSt7__cxx1112basic_stringIcSt11char_traitsIcESaIcEEE(ptr noundef nonnull align 8 dereferenceable(32) %4) #24
          to label %12 unwind label %13

12:                                               ; preds = %11
  unreachable

13:                                               ; preds = %11
  %14 = landingpad { ptr, i32 }
          cleanup
  br label %23

15:                                               ; preds = %1
  store i32 %0, ptr %6, align 4
  store i32 52, ptr %7, align 4
  %16 = icmp ult i32 %0, 52
  br i1 %16, label %21, label %17

17:                                               ; preds = %15
  store i32 78, ptr %9, align 4
  call void @_ZN10open_spiel8internal11SpielStrCatIJRA144_KcRA2_S2_iS6_RA19_S2_RA8_S2_RA4_S2_RiRA15_S2_SD_EEENSt7__cxx1112basic_stringIcSt11char_traitsIcESaIcEEEDpOT_(ptr dead_on_unwind nonnull writable sret(%"class.std::__cxx11::basic_string") align 8 %8, ptr noundef nonnull align 1 dereferenceable(144) @.str.20, ptr noundef nonnull align 1 dereferenceable(2) @.str.21, ptr noundef nonnull align 4 dereferenceable(4) %9, ptr noundef nonnull align 1 dereferenceable(2) @.str.22, ptr noundef nonnull align 1 dereferenceable(19) @.str.96, ptr noundef nonnull align 1 dereferenceable(8) @.str.71, ptr noundef nonnull align 1 dereferenceable(4) @.str.25, ptr noundef nonnull align 4 dereferenceable(4) %6, ptr noundef nonnull align 1 dereferenceable(15) @.str.37, ptr noundef nonnull align 4 dereferenceable(4) %7)
  invoke void @_ZN10open_spiel15SpielFatalErrorERKNSt7__cxx1112basic_stringIcSt11char_traitsIcESaIcEEE(ptr noundef nonnull align 8 dereferenceable(32) %8) #24
          to label %18 unwind label %19

18:                                               ; preds = %17
  unreachable

19:                                               ; preds = %17
  %20 = landingpad { ptr, i32 }
          cleanup
  br label %23

21:                                               ; preds = %15
  %22 = lshr i32 %0, 2
  ret i32 %22

23:                                               ; preds = %19, %13
  %.sink = phi ptr [ %8, %19 ], [ %4, %13 ]
  %.pn = phi { ptr, i32 } [ %20, %19 ], [ %14, %13 ]
  call void @_ZNSt7__cxx1112basic_stringIcSt11char_traitsIcESaIcEED1Ev(ptr noundef nonnull align 8 dereferenceable(32) %.sink) #25
  resume { ptr, i32 } %.pn
}